target datalayout = "e-m:e-p270:32:32-p271:32:32-p272:64:64-i64:64-i128:128-f80:128-n8:16:32:64-S128"
target triple = "x86_64-pc-linux-gnu"

%struct.JNINativeInterface_ = type { ptr, ptr, ptr, ptr, ptr, ptr, ptr, ptr, ptr, ptr, ptr, ptr, ptr, ptr, ptr, ptr, ptr, ptr, ptr, ptr, ptr, ptr, ptr, ptr, ptr, ptr, ptr, ptr, ptr, ptr, ptr, ptr, ptr, ptr, ptr, ptr, ptr, ptr, ptr, ptr, ptr, ptr, ptr, ptr, ptr, ptr, ptr, ptr, ptr, ptr, ptr, ptr, ptr, ptr, ptr, ptr, ptr, ptr, ptr, ptr, ptr, ptr, ptr, ptr, ptr, ptr, ptr, ptr, ptr, ptr, ptr, ptr, ptr, ptr, ptr, ptr, ptr, ptr, ptr, ptr, ptr, ptr, ptr, ptr, ptr, ptr, ptr, ptr, ptr, ptr, ptr, ptr, ptr, ptr, ptr, ptr, ptr, ptr, ptr, ptr, ptr, ptr, ptr, ptr, ptr, ptr, ptr, ptr, ptr, ptr, ptr, ptr, ptr, ptr, ptr, ptr, ptr, ptr, ptr, ptr, ptr, ptr, ptr, ptr, ptr, ptr, ptr, ptr, ptr, ptr, ptr, ptr, ptr, ptr, ptr, ptr, ptr, ptr, ptr, ptr, ptr, ptr, ptr, ptr, ptr, ptr, ptr, ptr, ptr, ptr, ptr, ptr, ptr, ptr, ptr, ptr, ptr, ptr, ptr, ptr, ptr, ptr, ptr, ptr, ptr, ptr, ptr, ptr, ptr, ptr, ptr, ptr, ptr, ptr, ptr, ptr, ptr, ptr, ptr, ptr, ptr, ptr, ptr, ptr, ptr, ptr, ptr, ptr, ptr, ptr, ptr, ptr, ptr, ptr, ptr, ptr, ptr, ptr, ptr, ptr, ptr, ptr, ptr, ptr, ptr, ptr, ptr, ptr, ptr, ptr, ptr, ptr, ptr, ptr, ptr, ptr, ptr, ptr, ptr, ptr, ptr, ptr, ptr, ptr, ptr, ptr, ptr, ptr, ptr, ptr, ptr, ptr, ptr, ptr, ptr }
%struct.sctp_assoc_change = type { i16, i16, i32, i16, i16, i16, i16, i32, [0 x i8] }
%struct.sctp_shutdown_event = type { i16, i16, i32, i32 }
%struct.sctp_paddr_change = type <{ i16, i16, i32, %struct.sockaddr_storage, i32, i32, i32 }>
%struct.sockaddr_storage = type { i16, [118 x i8], i64 }
%struct.anon = type { i16, i16, i32 }

@src_valueID = internal global ptr null, align 8
@src_typeID = internal global ptr null, align 8
@sac_class = internal global ptr null, align 8
@sac_ctrID = internal global ptr null, align 8
@spc_class = internal global ptr null, align 8
@spc_ctrID = internal global ptr null, align 8
@ss_class = internal global ptr null, align 8
@ss_ctrID = internal global ptr null, align 8

; Function Attrs: nounwind uwtable
define hidden void @handleUninteresting(ptr noundef %0) #0 {
  %2 = alloca ptr, align 8
  store ptr %0, ptr %2, align 8
  ret void
}

; Function Attrs: nounwind uwtable
define hidden void @handlePeerAddrChange(ptr noundef %0, ptr noundef %1, ptr noundef %2) #0 {
  %4 = alloca ptr, align 8
  %5 = alloca ptr, align 8
  %6 = alloca ptr, align 8
  %7 = alloca i32, align 4
  %8 = alloca ptr, align 8
  %9 = alloca ptr, align 8
  %10 = alloca i32, align 4
  store ptr %0, ptr %4, align 8
  store ptr %1, ptr %5, align 8
  store ptr %2, ptr %6, align 8
  store i32 0, ptr %7, align 4
  %11 = load ptr, ptr %6, align 8
  %12 = getelementptr inbounds %struct.sctp_paddr_change, ptr %11, i32 0, i32 4
  %13 = load i32, ptr %12, align 4
  store i32 %13, ptr %10, align 4
  %14 = load i32, ptr %10, align 4
  switch i32 %14, label %21 [
    i32 0, label %15
    i32 1, label %16
    i32 2, label %17
    i32 3, label %18
    i32 4, label %19
    i32 5, label %20
  ]

15:                                               ; preds = %3
  store i32 1, ptr %7, align 4
  br label %21

16:                                               ; preds = %3
  store i32 2, ptr %7, align 4
  br label %21

17:                                               ; preds = %3
  store i32 3, ptr %7, align 4
  br label %21

18:                                               ; preds = %3
  store i32 4, ptr %7, align 4
  br label %21

19:                                               ; preds = %3
  store i32 5, ptr %7, align 4
  br label %21

20:                                               ; preds = %3
  store i32 6, ptr %7, align 4
  br label %21

21:                                               ; preds = %20, %19, %18, %17, %16, %15, %3
  %22 = load ptr, ptr %4, align 8
  %23 = load ptr, ptr %6, align 8
  %24 = getelementptr inbounds %struct.sctp_paddr_change, ptr %23, i32 0, i32 3
  %25 = call ptr @SockAddrToInetSocketAddress(ptr noundef %22, ptr noundef %24)
  store ptr %25, ptr %8, align 8
  br label %26

26:                                               ; preds = %21
  %27 = load ptr, ptr %8, align 8
  %28 = icmp eq ptr %27, null
  br i1 %28, label %29, label %30

29:                                               ; preds = %26
  br label %66

30:                                               ; preds = %26
  br label %31

31:                                               ; preds = %30
  %32 = load ptr, ptr %4, align 8
  %33 = load ptr, ptr %32, align 8
  %34 = getelementptr inbounds %struct.JNINativeInterface_, ptr %33, i32 0, i32 28
  %35 = load ptr, ptr %34, align 8
  %36 = load ptr, ptr %4, align 8
  %37 = load ptr, ptr @spc_class, align 8
  %38 = load ptr, ptr @spc_ctrID, align 8
  %39 = load ptr, ptr %6, align 8
  %40 = getelementptr inbounds %struct.sctp_paddr_change, ptr %39, i32 0, i32 6
  %41 = load i32, ptr %40, align 4
  %42 = load ptr, ptr %8, align 8
  %43 = load i32, ptr %7, align 4
  %44 = call ptr (ptr, ptr, ptr, ...) %35(ptr noundef %36, ptr noundef %37, ptr noundef %38, i32 noundef %41, ptr noundef %42, i32 noundef %43)
  store ptr %44, ptr %9, align 8
  br label %45

45:                                               ; preds = %31
  %46 = load ptr, ptr %9, align 8
  %47 = icmp eq ptr %46, null
  br i1 %47, label %48, label %49

48:                                               ; preds = %45
  br label %66

49:                                               ; preds = %45
  br label %50

50:                                               ; preds = %49
  %51 = load ptr, ptr %4, align 8
  %52 = load ptr, ptr %51, align 8
  %53 = getelementptr inbounds %struct.JNINativeInterface_, ptr %52, i32 0, i32 104
  %54 = load ptr, ptr %53, align 8
  %55 = load ptr, ptr %4, align 8
  %56 = load ptr, ptr %5, align 8
  %57 = load ptr, ptr @src_valueID, align 8
  %58 = load ptr, ptr %9, align 8
  call void %54(ptr noundef %55, ptr noundef %56, ptr noundef %57, ptr noundef %58)
  %59 = load ptr, ptr %4, align 8
  %60 = load ptr, ptr %59, align 8
  %61 = getelementptr inbounds %struct.JNINativeInterface_, ptr %60, i32 0, i32 109
  %62 = load ptr, ptr %61, align 8
  %63 = load ptr, ptr %4, align 8
  %64 = load ptr, ptr %5, align 8
  %65 = load ptr, ptr @src_typeID, align 8
  call void %62(ptr noundef %63, ptr noundef %64, ptr noundef %65, i32 noundef 4)
  br label %66

66:                                               ; preds = %50, %48, %29
  ret void
}

; Function Attrs: nounwind uwtable
define hidden void @handleShutdown(ptr noundef %0, ptr noundef %1, ptr noundef %2) #0 {
  %4 = alloca ptr, align 8
  %5 = alloca ptr, align 8
  %6 = alloca ptr, align 8
  %7 = alloca ptr, align 8
  store ptr %0, ptr %4, align 8
  store ptr %1, ptr %5, align 8
  store ptr %2, ptr %6, align 8
  %8 = load ptr, ptr %4, align 8
  %9 = load ptr, ptr %8, align 8
  %10 = getelementptr inbounds %struct.JNINativeInterface_, ptr %9, i32 0, i32 28
  %11 = load ptr, ptr %10, align 8
  %12 = load ptr, ptr %4, align 8
  %13 = load ptr, ptr @ss_class, align 8
  %14 = load ptr, ptr @ss_ctrID, align 8
  %15 = load ptr, ptr %6, align 8
  %16 = getelementptr inbounds %struct.sctp_shutdown_event, ptr %15, i32 0, i32 3
  %17 = load i32, ptr %16, align 4
  %18 = call ptr (ptr, ptr, ptr, ...) %11(ptr noundef %12, ptr noundef %13, ptr noundef %14, i32 noundef %17)
  store ptr %18, ptr %7, align 8
  br label %19

19:                                               ; preds = %3
  %20 = load ptr, ptr %7, align 8
  %21 = icmp eq ptr %20, null
  br i1 %21, label %22, label %23

22:                                               ; preds = %19
  br label %40

23:                                               ; preds = %19
  br label %24

24:                                               ; preds = %23
  %25 = load ptr, ptr %4, align 8
  %26 = load ptr, ptr %25, align 8
  %27 = getelementptr inbounds %struct.JNINativeInterface_, ptr %26, i32 0, i32 104
  %28 = load ptr, ptr %27, align 8
  %29 = load ptr, ptr %4, align 8
  %30 = load ptr, ptr %5, align 8
  %31 = load ptr, ptr @src_valueID, align 8
  %32 = load ptr, ptr %7, align 8
  call void %28(ptr noundef %29, ptr noundef %30, ptr noundef %31, ptr noundef %32)
  %33 = load ptr, ptr %4, align 8
  %34 = load ptr, ptr %33, align 8
  %35 = getelementptr inbounds %struct.JNINativeInterface_, ptr %34, i32 0, i32 109
  %36 = load ptr, ptr %35, align 8
  %37 = load ptr, ptr %4, align 8
  %38 = load ptr, ptr %5, align 8
  %39 = load ptr, ptr @src_typeID, align 8
  call void %36(ptr noundef %37, ptr noundef %38, ptr noundef %39, i32 noundef 5)
  br label %40

40:                                               ; preds = %24, %22
  ret void
}

; Function Attrs: nounwind uwtable
define hidden void @handleAssocChange(ptr noundef %0, ptr noundef %1, ptr noundef %2) #0 {
  %4 = alloca ptr, align 8
  %5 = alloca ptr, align 8
  %6 = alloca ptr, align 8
  %7 = alloca ptr, align 8
  %8 = alloca i32, align 4
  store ptr %0, ptr %4, align 8
  store ptr %1, ptr %5, align 8
  store ptr %2, ptr %6, align 8
  store i32 0, ptr %8, align 4
  %9 = load ptr, ptr %6, align 8
  %10 = getelementptr inbounds %struct.sctp_assoc_change, ptr %9, i32 0, i32 3
  %11 = load i16, ptr %10, align 4
  %12 = zext i16 %11 to i32
  switch i32 %12, label %18 [
    i32 0, label %13
    i32 1, label %14
    i32 2, label %15
    i32 3, label %16
    i32 4, label %17
  ]

13:                                               ; preds = %3
  store i32 1, ptr %8, align 4
  br label %18

14:                                               ; preds = %3
  store i32 2, ptr %8, align 4
  br label %18

15:                                               ; preds = %3
  store i32 3, ptr %8, align 4
  br label %18

16:                                               ; preds = %3
  store i32 4, ptr %8, align 4
  br label %18

17:                                               ; preds = %3
  store i32 5, ptr %8, align 4
  br label %18

18:                                               ; preds = %17, %16, %15, %14, %13, %3
  %19 = load ptr, ptr %4, align 8
  %20 = load ptr, ptr %19, align 8
  %21 = getelementptr inbounds %struct.JNINativeInterface_, ptr %20, i32 0, i32 28
  %22 = load ptr, ptr %21, align 8
  %23 = load ptr, ptr %4, align 8
  %24 = load ptr, ptr @sac_class, align 8
  %25 = load ptr, ptr @sac_ctrID, align 8
  %26 = load ptr, ptr %6, align 8
  %27 = getelementptr inbounds %struct.sctp_assoc_change, ptr %26, i32 0, i32 7
  %28 = load i32, ptr %27, align 4
  %29 = load i32, ptr %8, align 4
  %30 = load ptr, ptr %6, align 8
  %31 = getelementptr inbounds %struct.sctp_assoc_change, ptr %30, i32 0, i32 5
  %32 = load i16, ptr %31, align 4
  %33 = zext i16 %32 to i32
  %34 = load ptr, ptr %6, align 8
  %35 = getelementptr inbounds %struct.sctp_assoc_change, ptr %34, i32 0, i32 6
  %36 = load i16, ptr %35, align 2
  %37 = zext i16 %36 to i32
  %38 = call ptr (ptr, ptr, ptr, ...) %22(ptr noundef %23, ptr noundef %24, ptr noundef %25, i32 noundef %28, i32 noundef %29, i32 noundef %33, i32 noundef %37)
  store ptr %38, ptr %7, align 8
  br label %39

39:                                               ; preds = %18
  %40 = load ptr, ptr %7, align 8
  %41 = icmp eq ptr %40, null
  br i1 %41, label %42, label %43

42:                                               ; preds = %39
  br label %60

43:                                               ; preds = %39
  br label %44

44:                                               ; preds = %43
  %45 = load ptr, ptr %4, align 8
  %46 = load ptr, ptr %45, align 8
  %47 = getelementptr inbounds %struct.JNINativeInterface_, ptr %46, i32 0, i32 104
  %48 = load ptr, ptr %47, align 8
  %49 = load ptr, ptr %4, align 8
  %50 = load ptr, ptr %5, align 8
  %51 = load ptr, ptr @src_valueID, align 8
  %52 = load ptr, ptr %7, align 8
  call void %48(ptr noundef %49, ptr noundef %50, ptr noundef %51, ptr noundef %52)
  %53 = load ptr, ptr %4, align 8
  %54 = load ptr, ptr %53, align 8
  %55 = getelementptr inbounds %struct.JNINativeInterface_, ptr %54, i32 0, i32 109
  %56 = load ptr, ptr %55, align 8
  %57 = load ptr, ptr %4, align 8
  %58 = load ptr, ptr %5, align 8
  %59 = load ptr, ptr @src_typeID, align 8
  call void %56(ptr noundef %57, ptr noundef %58, ptr noundef %59, i32 noundef 3)
  br label %60

60:                                               ; preds = %44, %42
  ret void
}

; Function Attrs: nounwind uwtable
define hidden zeroext i8 @handleNotification(ptr noundef %0, i32 noundef %1, ptr noundef %2, ptr noundef %3, i32 noundef %4, i8 noundef zeroext %5, ptr noundef %6) #0 {
  %8 = alloca i8, align 1
  %9 = alloca ptr, align 8
  %10 = alloca i32, align 4
  %11 = alloca ptr, align 8
  %12 = alloca ptr, align 8
  %13 = alloca i32, align 4
  %14 = alloca i8, align 1
  %15 = alloca ptr, align 8
  store ptr %0, ptr %9, align 8
  store i32 %1, ptr %10, align 4
  store ptr %2, ptr %11, align 8
  store ptr %3, ptr %12, align 8
  store i32 %4, ptr %13, align 4
  store i8 %5, ptr %14, align 1
  store ptr %6, ptr %15, align 8
  %16 = load ptr, ptr %12, align 8
  %17 = getelementptr inbounds %struct.anon, ptr %16, i32 0, i32 0
  %18 = load i16, ptr %17, align 4
  %19 = zext i16 %18 to i32
  switch i32 %19, label %40 [
    i32 32771, label %20
    i32 32769, label %28
    i32 32773, label %32
    i32 32770, label %36
  ]

20:                                               ; preds = %7
  %21 = load ptr, ptr %9, align 8
  %22 = load i32, ptr %10, align 4
  %23 = load ptr, ptr %11, align 8
  %24 = load ptr, ptr %12, align 8
  %25 = load i32, ptr %13, align 4
  %26 = load i8, ptr %14, align 1
  %27 = load ptr, ptr %15, align 8
  call void @handleSendFailed(ptr noundef %21, i32 noundef %22, ptr noundef %23, ptr noundef %24, i32 noundef %25, i8 noundef zeroext %26, ptr noundef %27)
  store i8 1, ptr %8, align 1
  br label %43

28:                                               ; preds = %7
  %29 = load ptr, ptr %9, align 8
  %30 = load ptr, ptr %11, align 8
  %31 = load ptr, ptr %12, align 8
  call void @handleAssocChange(ptr noundef %29, ptr noundef %30, ptr noundef %31)
  store i8 1, ptr %8, align 1
  br label %43

32:                                               ; preds = %7
  %33 = load ptr, ptr %9, align 8
  %34 = load ptr, ptr %11, align 8
  %35 = load ptr, ptr %12, align 8
  call void @handleShutdown(ptr noundef %33, ptr noundef %34, ptr noundef %35)
  store i8 1, ptr %8, align 1
  br label %43

36:                                               ; preds = %7
  %37 = load ptr, ptr %9, align 8
  %38 = load ptr, ptr %11, align 8
  %39 = load ptr, ptr %12, align 8
  call void @handlePeerAddrChange(ptr noundef %37, ptr noundef %38, ptr noundef %39)
  store i8 1, ptr %8, align 1
  br label %43

40:                                               ; preds = %7
  %41 = load ptr, ptr %12, align 8
  call void @handleUninteresting(ptr noundef %41)
  br label %42

42:                                               ; preds = %40
  store i8 0, ptr %8, align 1
  br label %43

43:                                               ; preds = %42, %36, %32, %28, %20
  %44 = load i8, ptr %8, align 1
  ret i8 %44
}