; Function Attrs: nounwind uwtable
define hidden zeroext range(i8 0, 2) i8 @handleNotification(ptr noundef %0, i32 noundef %1, ptr noundef %2, ptr noundef %3, i32 noundef %4, i8 zeroext %5, ptr noundef %6) local_unnamed_addr #0 {
  %8 = load i16, ptr %3, align 4
  switch i16 %8, label %handleAssocChange.exit [
    i16 -32765, label %9
    i16 -32767, label %10
    i16 -32763, label %38
    i16 -32766, label %switch.lookup19
  ]

9:                                                ; preds = %7
  tail call void @handleSendFailed(ptr noundef %0, i32 noundef %1, ptr noundef %2, ptr noundef nonnull %3, i32 noundef %4, i8 zeroext poison, ptr noundef %6)
  br label %handleAssocChange.exit

10:                                               ; preds = %7
  %11 = getelementptr inbounds i8, ptr %3, i64 8
  %12 = load i16, ptr %11, align 4
  %13 = icmp ult i16 %12, 5
  %switch.idx.cast = zext i16 %12 to i32
  %switch.offset = add nuw nsw i32 %switch.idx.cast, 1
  %.0.i = select i1 %13, i32 %switch.offset, i32 0
  %14 = load ptr, ptr %0, align 8
  %15 = getelementptr inbounds i8, ptr %14, i64 224
  %16 = load ptr, ptr %15, align 8
  %17 = load ptr, ptr @sac_class, align 8
  %18 = load ptr, ptr @sac_ctrID, align 8
  %19 = getelementptr inbounds i8, ptr %3, i64 16
  %20 = load i32, ptr %19, align 4
  %21 = getelementptr inbounds i8, ptr %3, i64 12
  %22 = load i16, ptr %21, align 4
  %23 = zext i16 %22 to i32
  %24 = getelementptr inbounds i8, ptr %3, i64 14
  %25 = load i16, ptr %24, align 2
  %26 = zext i16 %25 to i32
  %27 = tail call ptr (ptr, ptr, ptr, ...) %16(ptr noundef nonnull %0, ptr noundef %17, ptr noundef %18, i32 noundef %20, i32 noundef %.0.i, i32 noundef %23, i32 noundef %26) #11
  %28 = icmp eq ptr %27, null
  br i1 %28, label %handleAssocChange.exit, label %29

29:                                               ; preds = %10
  %30 = load ptr, ptr %0, align 8
  %31 = getelementptr inbounds i8, ptr %30, i64 832
  %32 = load ptr, ptr %31, align 8
  %33 = load ptr, ptr @src_valueID, align 8
  tail call void %32(ptr noundef nonnull %0, ptr noundef %2, ptr noundef %33, ptr noundef nonnull %27) #11
  %34 = load ptr, ptr %0, align 8
  %35 = getelementptr inbounds i8, ptr %34, i64 872
  %36 = load ptr, ptr %35, align 8
  %37 = load ptr, ptr @src_typeID, align 8
  tail call void %36(ptr noundef nonnull %0, ptr noundef %2, ptr noundef %37, i32 noundef 3) #11
  br label %handleAssocChange.exit

38:                                               ; preds = %7
  %39 = load ptr, ptr %0, align 8
  %40 = getelementptr inbounds i8, ptr %39, i64 224
  %41 = load ptr, ptr %40, align 8
  %42 = load ptr, ptr @ss_class, align 8
  %43 = load ptr, ptr @ss_ctrID, align 8
  %44 = getelementptr inbounds i8, ptr %3, i64 8
  %45 = load i32, ptr %44, align 4
  %46 = tail call ptr (ptr, ptr, ptr, ...) %41(ptr noundef nonnull %0, ptr noundef %42, ptr noundef %43, i32 noundef %45) #11
  %47 = icmp eq ptr %46, null
  br i1 %47, label %handleAssocChange.exit, label %48

48:                                               ; preds = %38
  %49 = load ptr, ptr %0, align 8
  %50 = getelementptr inbounds i8, ptr %49, i64 832
  %51 = load ptr, ptr %50, align 8
  %52 = load ptr, ptr @src_valueID, align 8
  tail call void %51(ptr noundef nonnull %0, ptr noundef %2, ptr noundef %52, ptr noundef nonnull %46) #11
  %53 = load ptr, ptr %0, align 8
  %54 = getelementptr inbounds i8, ptr %53, i64 872
  %55 = load ptr, ptr %54, align 8
  %56 = load ptr, ptr @src_typeID, align 8
  tail call void %55(ptr noundef nonnull %0, ptr noundef %2, ptr noundef %56, i32 noundef 5) #11
  br label %handleAssocChange.exit

switch.lookup19:                                  ; preds = %7
  %57 = getelementptr inbounds i8, ptr %3, i64 136
  %58 = load i32, ptr %57, align 4
  %59 = getelementptr inbounds i8, ptr %3, i64 8
  %60 = tail call ptr @SockAddrToInetSocketAddress(ptr noundef %0, ptr noundef nonnull %59) #11
  %61 = icmp eq ptr %60, null
  br i1 %61, label %handleAssocChange.exit, label %62

62:                                               ; preds = %switch.lookup19
  %63 = icmp ult i32 %58, 6
  %switch.offset20 = add nsw i32 %58, 1
  %spec.select = select i1 %63, i32 %switch.offset20, i32 0
  %64 = load ptr, ptr %0, align 8
  %65 = getelementptr inbounds i8, ptr %64, i64 224
  %66 = load ptr, ptr %65, align 8
  %67 = load ptr, ptr @spc_class, align 8
  %68 = load ptr, ptr @spc_ctrID, align 8
  %69 = getelementptr inbounds i8, ptr %3, i64 144
  %70 = load i32, ptr %69, align 4
  %71 = tail call ptr (ptr, ptr, ptr, ...) %66(ptr noundef nonnull %0, ptr noundef %67, ptr noundef %68, i32 noundef %70, ptr noundef nonnull %60, i32 noundef %spec.select) #11
  %72 = icmp eq ptr %71, null
  br i1 %72, label %handleAssocChange.exit, label %73

73:                                               ; preds = %62
  %74 = load ptr, ptr %0, align 8
  %75 = getelementptr inbounds i8, ptr %74, i64 832
  %76 = load ptr, ptr %75, align 8
  %77 = load ptr, ptr @src_valueID, align 8
  tail call void %76(ptr noundef nonnull %0, ptr noundef %2, ptr noundef %77, ptr noundef nonnull %71) #11
  %78 = load ptr, ptr %0, align 8
  %79 = getelementptr inbounds i8, ptr %78, i64 872
  %80 = load ptr, ptr %79, align 8
  %81 = load ptr, ptr @src_typeID, align 8
  tail call void %80(ptr noundef nonnull %0, ptr noundef %2, ptr noundef %81, i32 noundef 4) #11
  br label %handleAssocChange.exit

handleAssocChange.exit:                           ; preds = %7, %73, %62, %switch.lookup19, %48, %38, %29, %10, %9
  %.0 = phi i8 [ 1, %9 ], [ 1, %10 ], [ 1, %29 ], [ 1, %38 ], [ 1, %48 ], [ 1, %switch.lookup19 ], [ 1, %62 ], [ 1, %73 ], [ 0, %7 ]
  ret i8 %.0
}